(lp1
S'DIMS(1)'
p2
aS'DIMS(2)'
p3
aS'DIMS(3)'
p4
aS'FRODA(1)'
p5
aS'FRODA(2)'
p6
aS'FRODA(3)'
p7
aS'GOdMD(1)'
p8
aS'GOdMD(2)'
p9
aS'GOdMD(3)'
p10
aS'MDdMD(1)'
p11
aS'MDdMD(2)'
p12
aS'MDdMD(3)'
p13
aS'TMD-F(1)'
p14
aS'TMD-F(2)'
p15
aS'TMD-F(3)'
p16
aS'TMD-S(1)'
p17
aS'TMD-S(2)'
p18
aS'TMD-S(3)'
p19
aS'ANMP(1)'
p20
aS'ANMP(2)'
p21
aS'ANMP(3)'
p22
aS'iENM(1)'
p23
aS'iENM(2)'
p24
aS'iENM(3)'
p25
aS'MAP(1)'
p26
aS'MAP(2)'
p27
aS'MAP(3)'
p28
aS'MENM-SD(1)'
p29
aS'MENM-SD(2)'
p30
aS'MENM-SD(3)'
p31
aS'MENM-SP(1)'
p32
aS'MENM-SP(2)'
p33
aS'MENM-SP(3)'
p34
aS'Morph(1)'
p35
aS'Morph(2)'
p36
aS'Morph(3)'
p37
aS'LinInt'
p38
a.