(lp1
S'/Users/sseyler/Repositories/python/psanalysis/source/core/psadata/fitted_trajs/fitted_psa001.dcd'
p2
aS'/Users/sseyler/Repositories/python/psanalysis/source/core/psadata/fitted_trajs/fitted_psa002.dcd'
p3
aS'/Users/sseyler/Repositories/python/psanalysis/source/core/psadata/fitted_trajs/fitted_psa003.dcd'
p4
aS'/Users/sseyler/Repositories/python/psanalysis/source/core/psadata/fitted_trajs/fitted_psa004.dcd'
p5
a.