(lp1
S'/Users/sseyler/Repositories/python/psanalysis/source/core/psadata/paths/path_psa001.npy'
p2
aS'/Users/sseyler/Repositories/python/psanalysis/source/core/psadata/paths/path_psa002.npy'
p3
aS'/Users/sseyler/Repositories/python/psanalysis/source/core/psadata/paths/path_psa003.npy'
p4
aS'/Users/sseyler/Repositories/python/psanalysis/source/core/psadata/paths/path_psa004.npy'
p5
aS'/Users/sseyler/Repositories/python/psanalysis/source/core/psadata/paths/path_psa005.npy'
p6
aS'/Users/sseyler/Repositories/python/psanalysis/source/core/psadata/paths/path_psa006.npy'
p7
aS'/Users/sseyler/Repositories/python/psanalysis/source/core/psadata/paths/path_psa007.npy'
p8
aS'/Users/sseyler/Repositories/python/psanalysis/source/core/psadata/paths/path_psa008.npy'
p9
aS'/Users/sseyler/Repositories/python/psanalysis/source/core/psadata/paths/path_psa009.npy'
p10
aS'/Users/sseyler/Repositories/python/psanalysis/source/core/psadata/paths/path_psa010.npy'
p11
aS'/Users/sseyler/Repositories/python/psanalysis/source/core/psadata/paths/path_psa011.npy'
p12
aS'/Users/sseyler/Repositories/python/psanalysis/source/core/psadata/paths/path_psa012.npy'
p13
aS'/Users/sseyler/Repositories/python/psanalysis/source/core/psadata/paths/path_psa013.npy'
p14
aS'/Users/sseyler/Repositories/python/psanalysis/source/core/psadata/paths/path_psa014.npy'
p15
aS'/Users/sseyler/Repositories/python/psanalysis/source/core/psadata/paths/path_psa015.npy'
p16
aS'/Users/sseyler/Repositories/python/psanalysis/source/core/psadata/paths/path_psa016.npy'
p17
aS'/Users/sseyler/Repositories/python/psanalysis/source/core/psadata/paths/path_psa017.npy'
p18
aS'/Users/sseyler/Repositories/python/psanalysis/source/core/psadata/paths/path_psa018.npy'
p19
aS'/Users/sseyler/Repositories/python/psanalysis/source/core/psadata/paths/path_psa019.npy'
p20
aS'/Users/sseyler/Repositories/python/psanalysis/source/core/psadata/paths/path_psa020.npy'
p21
aS'/Users/sseyler/Repositories/python/psanalysis/source/core/psadata/paths/path_psa021.npy'
p22
aS'/Users/sseyler/Repositories/python/psanalysis/source/core/psadata/paths/path_psa022.npy'
p23
aS'/Users/sseyler/Repositories/python/psanalysis/source/core/psadata/paths/path_psa023.npy'
p24
aS'/Users/sseyler/Repositories/python/psanalysis/source/core/psadata/paths/path_psa024.npy'
p25
aS'/Users/sseyler/Repositories/python/psanalysis/source/core/psadata/paths/path_psa025.npy'
p26
aS'/Users/sseyler/Repositories/python/psanalysis/source/core/psadata/paths/path_psa026.npy'
p27
aS'/Users/sseyler/Repositories/python/psanalysis/source/core/psadata/paths/path_psa027.npy'
p28
aS'/Users/sseyler/Repositories/python/psanalysis/source/core/psadata/paths/path_psa028.npy'
p29
aS'/Users/sseyler/Repositories/python/psanalysis/source/core/psadata/paths/path_psa029.npy'
p30
aS'/Users/sseyler/Repositories/python/psanalysis/source/core/psadata/paths/path_psa030.npy'
p31
aS'/Users/sseyler/Repositories/python/psanalysis/source/core/psadata/paths/path_psa031.npy'
p32
aS'/Users/sseyler/Repositories/python/psanalysis/source/core/psadata/paths/path_psa032.npy'
p33
aS'/Users/sseyler/Repositories/python/psanalysis/source/core/psadata/paths/path_psa033.npy'
p34
aS'/Users/sseyler/Repositories/python/psanalysis/source/core/psadata/paths/path_psa034.npy'
p35
a.