(lp1
S'/Users/sseyler/Repositories/python/psanalysis/source/core/psadata/fitted_trajs/fitted_psa001.dcd'
p2
aS'/Users/sseyler/Repositories/python/psanalysis/source/core/psadata/fitted_trajs/fitted_psa002.dcd'
p3
aS'/Users/sseyler/Repositories/python/psanalysis/source/core/psadata/fitted_trajs/fitted_psa003.dcd'
p4
aS'/Users/sseyler/Repositories/python/psanalysis/source/core/psadata/fitted_trajs/fitted_psa004.dcd'
p5
aS'/Users/sseyler/Repositories/python/psanalysis/source/core/psadata/fitted_trajs/fitted_psa005.dcd'
p6
aS'/Users/sseyler/Repositories/python/psanalysis/source/core/psadata/fitted_trajs/fitted_psa006.dcd'
p7
aS'/Users/sseyler/Repositories/python/psanalysis/source/core/psadata/fitted_trajs/fitted_psa007.dcd'
p8
aS'/Users/sseyler/Repositories/python/psanalysis/source/core/psadata/fitted_trajs/fitted_psa008.dcd'
p9
aS'/Users/sseyler/Repositories/python/psanalysis/source/core/psadata/fitted_trajs/fitted_psa009.dcd'
p10
aS'/Users/sseyler/Repositories/python/psanalysis/source/core/psadata/fitted_trajs/fitted_psa010.dcd'
p11
aS'/Users/sseyler/Repositories/python/psanalysis/source/core/psadata/fitted_trajs/fitted_psa011.dcd'
p12
aS'/Users/sseyler/Repositories/python/psanalysis/source/core/psadata/fitted_trajs/fitted_psa012.dcd'
p13
aS'/Users/sseyler/Repositories/python/psanalysis/source/core/psadata/fitted_trajs/fitted_psa013.dcd'
p14
aS'/Users/sseyler/Repositories/python/psanalysis/source/core/psadata/fitted_trajs/fitted_psa014.dcd'
p15
aS'/Users/sseyler/Repositories/python/psanalysis/source/core/psadata/fitted_trajs/fitted_psa015.dcd'
p16
aS'/Users/sseyler/Repositories/python/psanalysis/source/core/psadata/fitted_trajs/fitted_psa016.dcd'
p17
aS'/Users/sseyler/Repositories/python/psanalysis/source/core/psadata/fitted_trajs/fitted_psa017.dcd'
p18
aS'/Users/sseyler/Repositories/python/psanalysis/source/core/psadata/fitted_trajs/fitted_psa018.dcd'
p19
aS'/Users/sseyler/Repositories/python/psanalysis/source/core/psadata/fitted_trajs/fitted_psa019.dcd'
p20
aS'/Users/sseyler/Repositories/python/psanalysis/source/core/psadata/fitted_trajs/fitted_psa020.dcd'
p21
aS'/Users/sseyler/Repositories/python/psanalysis/source/core/psadata/fitted_trajs/fitted_psa021.dcd'
p22
aS'/Users/sseyler/Repositories/python/psanalysis/source/core/psadata/fitted_trajs/fitted_psa022.dcd'
p23
aS'/Users/sseyler/Repositories/python/psanalysis/source/core/psadata/fitted_trajs/fitted_psa023.dcd'
p24
aS'/Users/sseyler/Repositories/python/psanalysis/source/core/psadata/fitted_trajs/fitted_psa024.dcd'
p25
aS'/Users/sseyler/Repositories/python/psanalysis/source/core/psadata/fitted_trajs/fitted_psa025.dcd'
p26
aS'/Users/sseyler/Repositories/python/psanalysis/source/core/psadata/fitted_trajs/fitted_psa026.dcd'
p27
aS'/Users/sseyler/Repositories/python/psanalysis/source/core/psadata/fitted_trajs/fitted_psa027.dcd'
p28
aS'/Users/sseyler/Repositories/python/psanalysis/source/core/psadata/fitted_trajs/fitted_psa028.dcd'
p29
aS'/Users/sseyler/Repositories/python/psanalysis/source/core/psadata/fitted_trajs/fitted_psa029.dcd'
p30
aS'/Users/sseyler/Repositories/python/psanalysis/source/core/psadata/fitted_trajs/fitted_psa030.dcd'
p31
aS'/Users/sseyler/Repositories/python/psanalysis/source/core/psadata/fitted_trajs/fitted_psa031.dcd'
p32
aS'/Users/sseyler/Repositories/python/psanalysis/source/core/psadata/fitted_trajs/fitted_psa032.dcd'
p33
aS'/Users/sseyler/Repositories/python/psanalysis/source/core/psadata/fitted_trajs/fitted_psa033.dcd'
p34
aS'/Users/sseyler/Repositories/python/psanalysis/source/core/psadata/fitted_trajs/fitted_psa034.dcd'
p35
a.