(lp1
S'/Users/sseyler/Repositories/python/psanalysis/source/core/psadata/paths/path_psa001.npy'
p2
aS'/Users/sseyler/Repositories/python/psanalysis/source/core/psadata/paths/path_psa002.npy'
p3
aS'/Users/sseyler/Repositories/python/psanalysis/source/core/psadata/paths/path_psa003.npy'
p4
aS'/Users/sseyler/Repositories/python/psanalysis/source/core/psadata/paths/path_psa004.npy'
p5
a.